target datalayout = "e-m:e-p270:32:32-p271:32:32-p272:64:64-i64:64-i128:128-f80:128-n8:16:32:64-S128"
target triple = "x86_64-pc-linux-gnu"

%struct._packet_info = type { ptr, ptr, i32, i32, %struct.nstime_t, %struct.nstime_t, %struct.nstime_t, i8, ptr, ptr, ptr, ptr, %struct._address, %struct._address, %struct._address, %struct._address, %struct._address, %struct._address, i32, ptr, i8, [3 x i8], %struct.anon, i32, i32, i32, i32, ptr, i8, ptr, ptr, i16, i16, i32, i32, i16, i32, i32, ptr, ptr, ptr, i8, i8, i16, i16, i16, i32, i16, i16, ptr, ptr, ptr, ptr, ptr, i32, i32 }
%struct.nstime_t = type { i64, i32 }
%struct._address = type { i32, i32, ptr, ptr }
%struct.anon = type { i8, [3 x i8] }

@hf_ndmp_file_name = internal global i32 0, align 4
@.str.316 = private unnamed_addr constant [5 x i8] c"File\00", align 1
@hf_ndmp_nt_file_name = internal global i32 0, align 4
@hf_ndmp_dos_file_name = internal global i32 0, align 4
@hf_ndmp_file_fs_type = internal global i32 0, align 4
@ett_ndmp_file_name = internal global i32 0, align 4
@.str.759 = private unnamed_addr constant [4 x i8] c" %s\00", align 1
@.str.760 = private unnamed_addr constant [6 x i8] c" (%s)\00", align 1
@.str.761 = private unnamed_addr constant [13 x i8] c"Unknown type\00", align 1

; Function Attrs: null_pointer_is_valid sspstrong uwtable
define internal i32 @dissect_file_name(ptr noundef %0, i32 noundef %1, ptr noundef %2, ptr noundef %3, ptr noundef %4) #0 {
  %6 = alloca ptr, align 8
  %7 = alloca i32, align 4
  %8 = alloca ptr, align 8
  %9 = alloca ptr, align 8
  %10 = alloca ptr, align 8
  %11 = alloca ptr, align 8
  %12 = alloca ptr, align 8
  %13 = alloca i32, align 4
  %14 = alloca i32, align 4
  %15 = alloca ptr, align 8
  store ptr %0, ptr %6, align 8
  store i32 %1, ptr %7, align 4
  store ptr %2, ptr %8, align 8
  store ptr %3, ptr %9, align 8
  store ptr %4, ptr %10, align 8
  call void @llvm.lifetime.start.p0(i64 8, ptr %11) #9
  call void @llvm.lifetime.start.p0(i64 8, ptr %12) #9
  call void @llvm.lifetime.start.p0(i64 4, ptr %13) #9
  %16 = load i32, ptr %7, align 4
  store i32 %16, ptr %13, align 4
  call void @llvm.lifetime.start.p0(i64 4, ptr %14) #9
  call void @llvm.lifetime.start.p0(i64 8, ptr %15) #9
  %17 = load ptr, ptr %9, align 8
  %18 = load ptr, ptr %6, align 8
  %19 = load i32, ptr %7, align 4
  %20 = load i32, ptr @ett_ndmp_file_name, align 4
  %21 = call ptr @proto_tree_add_subtree(ptr noundef %17, ptr noundef %18, i32 noundef %19, i32 noundef -1, i32 noundef %20, ptr noundef %11, ptr noundef @.str.316)
  store ptr %21, ptr %12, align 8
  %22 = load ptr, ptr %6, align 8
  %23 = load i32, ptr %7, align 4
  %24 = call i32 @tvb_get_ntohl(ptr noundef %22, i32 noundef %23)
  store i32 %24, ptr %14, align 4
  %25 = load ptr, ptr %12, align 8
  %26 = load i32, ptr @hf_ndmp_file_fs_type, align 4
  %27 = load ptr, ptr %6, align 8
  %28 = load i32, ptr %7, align 4
  %29 = call ptr @proto_tree_add_item(ptr noundef %25, i32 noundef %26, ptr noundef %27, i32 noundef %28, i32 noundef 4, i32 noundef 0)
  %30 = load i32, ptr %7, align 4
  %31 = add i32 %30, 4
  store i32 %31, ptr %7, align 4
  %32 = load i32, ptr %14, align 4
  switch i32 %32, label %58 [
    i32 0, label %33
    i32 1, label %43
  ]

33:                                               ; preds = %5
  %34 = load ptr, ptr %6, align 8
  %35 = load ptr, ptr %12, align 8
  %36 = load i32, ptr @hf_ndmp_file_name, align 4
  %37 = load i32, ptr %7, align 4
  %38 = call i32 @dissect_rpc_string(ptr noundef %34, ptr noundef %35, i32 noundef %36, i32 noundef %37, ptr noundef %15)
  store i32 %38, ptr %7, align 4
  %39 = load ptr, ptr %8, align 8
  %40 = getelementptr inbounds nuw %struct._packet_info, ptr %39, i32 0, i32 1
  %41 = load ptr, ptr %40, align 8
  %42 = load ptr, ptr %15, align 8
  call void (ptr, i32, ptr, ...) @col_append_fstr(ptr noundef %41, i32 noundef 25, ptr noundef @.str.759, ptr noundef %42)
  br label %68

43:                                               ; preds = %5
  %44 = load ptr, ptr %6, align 8
  %45 = load ptr, ptr %12, align 8
  %46 = load i32, ptr @hf_ndmp_nt_file_name, align 4
  %47 = load i32, ptr %7, align 4
  %48 = call i32 @dissect_rpc_string(ptr noundef %44, ptr noundef %45, i32 noundef %46, i32 noundef %47, ptr noundef %15)
  store i32 %48, ptr %7, align 4
  %49 = load ptr, ptr %8, align 8
  %50 = getelementptr inbounds nuw %struct._packet_info, ptr %49, i32 0, i32 1
  %51 = load ptr, ptr %50, align 8
  %52 = load ptr, ptr %15, align 8
  call void (ptr, i32, ptr, ...) @col_append_fstr(ptr noundef %51, i32 noundef 25, ptr noundef @.str.759, ptr noundef %52)
  %53 = load ptr, ptr %6, align 8
  %54 = load ptr, ptr %12, align 8
  %55 = load i32, ptr @hf_ndmp_dos_file_name, align 4
  %56 = load i32, ptr %7, align 4
  %57 = call i32 @dissect_rpc_string(ptr noundef %53, ptr noundef %54, i32 noundef %55, i32 noundef %56, ptr noundef null)
  store i32 %57, ptr %7, align 4
  br label %68

58:                                               ; preds = %5
  %59 = load ptr, ptr %6, align 8
  %60 = load ptr, ptr %12, align 8
  %61 = load i32, ptr @hf_ndmp_file_name, align 4
  %62 = load i32, ptr %7, align 4
  %63 = call i32 @dissect_rpc_string(ptr noundef %59, ptr noundef %60, i32 noundef %61, i32 noundef %62, ptr noundef %15)
  store i32 %63, ptr %7, align 4
  %64 = load ptr, ptr %8, align 8
  %65 = getelementptr inbounds nuw %struct._packet_info, ptr %64, i32 0, i32 1
  %66 = load ptr, ptr %65, align 8
  %67 = load ptr, ptr %15, align 8
  call void (ptr, i32, ptr, ...) @col_append_fstr(ptr noundef %66, i32 noundef 25, ptr noundef @.str.759, ptr noundef %67)
  br label %68

68:                                               ; preds = %58, %43, %33
  %69 = load ptr, ptr %8, align 8
  %70 = getelementptr inbounds nuw %struct._packet_info, ptr %69, i32 0, i32 1
  %71 = load ptr, ptr %70, align 8
  %72 = load i32, ptr %14, align 4
  %73 = call ptr @val_to_str_const(i32 noundef %72, ptr noundef @file_fs_type_vals, ptr noundef @.str.761)
  call void (ptr, i32, ptr, ...) @col_append_fstr(ptr noundef %71, i32 noundef 25, ptr noundef @.str.760, ptr noundef %73)
  %74 = load ptr, ptr %11, align 8
  %75 = load i32, ptr %7, align 4
  %76 = load i32, ptr %13, align 4
  %77 = sub i32 %75, %76
  call void @proto_item_set_len(ptr noundef %74, i32 noundef %77)
  %78 = load i32, ptr %7, align 4
  call void @llvm.lifetime.end.p0(i64 8, ptr %15) #9
  call void @llvm.lifetime.end.p0(i64 4, ptr %14) #9
  call void @llvm.lifetime.end.p0(i64 4, ptr %13) #9
  call void @llvm.lifetime.end.p0(i64 8, ptr %12) #9
  call void @llvm.lifetime.end.p0(i64 8, ptr %11) #9
  ret i32 %78
}