; Function Attrs: null_pointer_is_valid sspstrong uwtable
define internal i32 @dissect_file_name(ptr noundef %0, i32 noundef %1, ptr noundef readonly captures(none) %2, ptr noundef %3, ptr readnone captures(none) %4) #0 {
  %6 = alloca ptr, align 8
  %7 = alloca ptr, align 8
  call void @llvm.lifetime.start.p0(i64 8, ptr nonnull %6) #10
  call void @llvm.lifetime.start.p0(i64 8, ptr nonnull %7) #10
  %8 = load i32, ptr @ett_ndmp_file_name, align 4
  %9 = call ptr @proto_tree_add_subtree(ptr noundef %3, ptr noundef %0, i32 noundef %1, i32 noundef -1, i32 noundef %8, ptr noundef nonnull %6, ptr noundef nonnull @.str.316)
  %10 = call i32 @tvb_get_ntohl(ptr noundef %0, i32 noundef %1)
  %11 = load i32, ptr @hf_ndmp_file_fs_type, align 4
  %12 = call ptr @proto_tree_add_item(ptr noundef %9, i32 noundef %11, ptr noundef %0, i32 noundef %1, i32 noundef 4, i32 noundef 0)
  %13 = add i32 %1, 4
  %14 = getelementptr inbounds nuw i8, ptr %2, i64 8
  switch i32 %10, label %27 [
    i32 0, label %15
    i32 1, label %20
  ]

15:                                               ; preds = %5
  %16 = load i32, ptr @hf_ndmp_file_name, align 4
  %17 = call i32 @dissect_rpc_string(ptr noundef %0, ptr noundef %9, i32 noundef %16, i32 noundef %13, ptr noundef nonnull %7)
  %18 = load ptr, ptr %14, align 8
  %19 = load ptr, ptr %7, align 8
  call void (ptr, i32, ptr, ...) @col_append_fstr(ptr noundef %18, i32 noundef 25, ptr noundef nonnull @.str.759, ptr noundef %19)
  br label %32

20:                                               ; preds = %5
  %21 = load i32, ptr @hf_ndmp_nt_file_name, align 4
  %22 = call i32 @dissect_rpc_string(ptr noundef %0, ptr noundef %9, i32 noundef %21, i32 noundef %13, ptr noundef nonnull %7)
  %23 = load ptr, ptr %14, align 8
  %24 = load ptr, ptr %7, align 8
  call void (ptr, i32, ptr, ...) @col_append_fstr(ptr noundef %23, i32 noundef 25, ptr noundef nonnull @.str.759, ptr noundef %24)
  %25 = load i32, ptr @hf_ndmp_dos_file_name, align 4
  %26 = call i32 @dissect_rpc_string(ptr noundef %0, ptr noundef %9, i32 noundef %25, i32 noundef %22, ptr noundef null)
  br label %32

27:                                               ; preds = %5
  %28 = load i32, ptr @hf_ndmp_file_name, align 4
  %29 = call i32 @dissect_rpc_string(ptr noundef %0, ptr noundef %9, i32 noundef %28, i32 noundef %13, ptr noundef nonnull %7)
  %30 = load ptr, ptr %14, align 8
  %31 = load ptr, ptr %7, align 8
  call void (ptr, i32, ptr, ...) @col_append_fstr(ptr noundef %30, i32 noundef 25, ptr noundef nonnull @.str.759, ptr noundef %31)
  br label %32

32:                                               ; preds = %27, %20, %15
  %.0 = phi i32 [ %29, %27 ], [ %26, %20 ], [ %17, %15 ]
  %33 = getelementptr inbounds nuw i8, ptr %2, i64 8
  %34 = load ptr, ptr %33, align 8
  %35 = call ptr @val_to_str_const(i32 noundef %10, ptr noundef nonnull @file_fs_type_vals, ptr noundef nonnull @.str.761)
  call void (ptr, i32, ptr, ...) @col_append_fstr(ptr noundef %34, i32 noundef 25, ptr noundef nonnull @.str.760, ptr noundef %35)
  %36 = load ptr, ptr %6, align 8
  %37 = sub i32 %.0, %1
  call void @proto_item_set_len(ptr noundef %36, i32 noundef %37)
  call void @llvm.lifetime.end.p0(i64 8, ptr nonnull %7) #10
  call void @llvm.lifetime.end.p0(i64 8, ptr nonnull %6) #10
  ret i32 %.0
}